target datalayout = "e-m:e-p270:32:32-p271:32:32-p272:64:64-i64:64-i128:128-f80:128-n8:16:32:64-S128"
target triple = "x86_64-pc-linux-gnu"

@libctx = internal global ptr null, align 8
@.str.24 = private unnamed_addr constant [34 x i8] c"../openssl/test/evp_libctx_test.c\00", align 1
@cipher_names = internal global ptr null, align 8
@.str.34 = private unnamed_addr constant [2 x i8] c"0\00", align 1
@.str.63 = private unnamed_addr constant [27 x i8] c"ctx = EVP_CIPHER_CTX_new()\00", align 1
@.str.64 = private unnamed_addr constant [13 x i8] c"Fetching %s\0A\00", align 1
@.str.65 = private unnamed_addr constant [46 x i8] c"cipher = EVP_CIPHER_fetch(libctx, name, NULL)\00", align 1
@.str.70 = private unnamed_addr constant [47 x i8] c"EVP_EncryptInit_ex(ctx, cipher, NULL, key, iv)\00", align 1
@.str.72 = private unnamed_addr constant [45 x i8] c"EVP_EncryptInit_ex(ctx, NULL, NULL, key, iv)\00", align 1
@.str.75 = private unnamed_addr constant [46 x i8] c"EVP_EncryptInit_ex(ctx, NULL, NULL, NULL, iv)\00", align 1
@.str.78 = private unnamed_addr constant [5 x i8] c"out1\00", align 1
@.str.79 = private unnamed_addr constant [5 x i8] c"out2\00", align 1
@.str.80 = private unnamed_addr constant [5 x i8] c"out3\00", align 1
@test_cipher_reinit_partialupdate.in = internal constant [32 x i8] c"\08\09\0A\0B\0C\0D\0E\0F\BA\BE\BA\BE\00\00\BA\BE\01\01\02\03\04\05\06\07\08\09\0A\0B\0C\0D\0E\0F", align 16
@test_cipher_reinit_partialupdate.key = internal constant [64 x i8] c"\00\01\02\03\04\05\06\07\08\09\0A\0B\0C\0D\0E\0F\01\01\02\03\04\05\06\07\08\09\0A\0B\0C\0D\0E\0F\02\01\02\03\04\05\06\07\08\09\0A\0B\0C\0D\0E\0F\03\01\02\03\04\05\06\07\08\09\0A\0B\0C\0D\0E\0F", align 16
@test_cipher_reinit_partialupdate.iv = internal constant [48 x i8] c"\0F\0E\0D\0C\0B\0A\09\08\07\06\05\04\03\02\01\00\0F\0E\0D\0C\0B\0A\09\08\07\06\05\04\03\02\01\00\0F\0E\0D\0C\0B\0A\09\08\07\06\05\04\03\02\01\00", align 16
@.str.81 = private unnamed_addr constant [7 x i8] c"in_len\00", align 1
@.str.82 = private unnamed_addr constant [52 x i8] c"EVP_EncryptUpdate(ctx, out1, &out1_len, in, in_len)\00", align 1
@.str.83 = private unnamed_addr constant [52 x i8] c"EVP_EncryptUpdate(ctx, out2, &out2_len, in, in_len)\00", align 1
@.str.84 = private unnamed_addr constant [52 x i8] c"EVP_EncryptUpdate(ctx, out3, &out3_len, in, in_len)\00", align 1

; Function Attrs: inlinehint nounwind uwtable
define internal ptr @ossl_check_const_OPENSSL_STRING_sk_type(ptr noundef %0) #4 {
  %2 = alloca ptr, align 8
  store ptr %0, ptr %2, align 8, !tbaa !15
  %3 = load ptr, ptr %2, align 8, !tbaa !15
  ret ptr %3
}

; Function Attrs: nounwind uwtable
define internal i32 @test_cipher_reinit_partialupdate(i32 noundef %0) #0 {
  %2 = alloca i32, align 4
  %3 = alloca i32, align 4
  %4 = alloca i32, align 4
  %5 = alloca i32, align 4
  %6 = alloca i32, align 4
  %7 = alloca i32, align 4
  %8 = alloca ptr, align 8
  %9 = alloca ptr, align 8
  %10 = alloca [256 x i8], align 16
  %11 = alloca [256 x i8], align 16
  %12 = alloca [256 x i8], align 16
  %13 = alloca ptr, align 8
  store i32 %0, ptr %2, align 4, !tbaa !9
  call void @llvm.lifetime.start.p0(i64 4, ptr %3) #7
  store i32 0, ptr %3, align 4, !tbaa !9
  call void @llvm.lifetime.start.p0(i64 4, ptr %4) #7
  call void @llvm.lifetime.start.p0(i64 4, ptr %5) #7
  store i32 0, ptr %5, align 4, !tbaa !9
  call void @llvm.lifetime.start.p0(i64 4, ptr %6) #7
  store i32 0, ptr %6, align 4, !tbaa !9
  call void @llvm.lifetime.start.p0(i64 4, ptr %7) #7
  store i32 0, ptr %7, align 4, !tbaa !9
  call void @llvm.lifetime.start.p0(i64 8, ptr %8) #7
  store ptr null, ptr %8, align 8, !tbaa !34
  call void @llvm.lifetime.start.p0(i64 8, ptr %9) #7
  store ptr null, ptr %9, align 8, !tbaa !17
  call void @llvm.lifetime.start.p0(i64 256, ptr %10) #7
  call void @llvm.lifetime.start.p0(i64 256, ptr %11) #7
  call void @llvm.lifetime.start.p0(i64 256, ptr %12) #7
  call void @llvm.lifetime.start.p0(i64 8, ptr %13) #7
  %14 = load ptr, ptr @cipher_names, align 8, !tbaa !15
  %15 = call ptr @ossl_check_const_OPENSSL_STRING_sk_type(ptr noundef %14)
  %16 = load i32, ptr %2, align 4, !tbaa !9
  %17 = call ptr @OPENSSL_sk_value(ptr noundef %15, i32 noundef %16)
  store ptr %17, ptr %13, align 8, !tbaa !4
  %18 = call ptr @EVP_CIPHER_CTX_new()
  store ptr %18, ptr %9, align 8, !tbaa !17
  %19 = call i32 @test_ptr(ptr noundef @.str.24, i32 noundef 473, ptr noundef @.str.63, ptr noundef %18)
  %20 = icmp ne i32 %19, 0
  br i1 %20, label %22, label %21

21:                                               ; preds = %1
  br label %148

22:                                               ; preds = %1
  %23 = load ptr, ptr %13, align 8, !tbaa !4
  call void (ptr, ...) @test_note(ptr noundef @.str.64, ptr noundef %23)
  %24 = load ptr, ptr @libctx, align 8, !tbaa !13
  %25 = load ptr, ptr %13, align 8, !tbaa !4
  %26 = call ptr @EVP_CIPHER_fetch(ptr noundef %24, ptr noundef %25, ptr noundef null)
  store ptr %26, ptr %8, align 8, !tbaa !34
  %27 = call i32 @test_ptr(ptr noundef @.str.24, i32 noundef 477, ptr noundef @.str.65, ptr noundef %26)
  %28 = icmp ne i32 %27, 0
  br i1 %28, label %30, label %29

29:                                               ; preds = %22
  br label %148

30:                                               ; preds = %22
  %31 = load ptr, ptr %8, align 8, !tbaa !34
  %32 = call i32 @EVP_CIPHER_get_block_size(ptr noundef %31)
  store i32 %32, ptr %4, align 4, !tbaa !9
  %33 = load i32, ptr %4, align 4, !tbaa !9
  %34 = call i32 @test_int_gt(ptr noundef @.str.24, i32 noundef 481, ptr noundef @.str.81, ptr noundef @.str.34, i32 noundef %33, i32 noundef 0)
  %35 = icmp ne i32 %34, 0
  br i1 %35, label %37, label %36

36:                                               ; preds = %30
  br label %148

37:                                               ; preds = %30
  %38 = load i32, ptr %4, align 4, !tbaa !9
  %39 = icmp sgt i32 %38, 1
  br i1 %39, label %40, label %43

40:                                               ; preds = %37
  %41 = load i32, ptr %4, align 4, !tbaa !9
  %42 = sdiv i32 %41, 2
  store i32 %42, ptr %4, align 4, !tbaa !9
  br label %43

43:                                               ; preds = %40, %37
  %44 = load ptr, ptr %8, align 8, !tbaa !34
  %45 = call i64 @EVP_CIPHER_get_flags(ptr noundef %44)
  %46 = and i64 %45, 4210688
  %47 = icmp ne i64 %46, 0
  br i1 %47, label %60, label %48

48:                                               ; preds = %43
  %49 = load ptr, ptr %8, align 8, !tbaa !34
  %50 = call i32 @EVP_CIPHER_get_mode(ptr noundef %49)
  %51 = icmp eq i32 %50, 7
  br i1 %51, label %60, label %52

52:                                               ; preds = %48
  %53 = load ptr, ptr %8, align 8, !tbaa !34
  %54 = call i32 @EVP_CIPHER_get_mode(ptr noundef %53)
  %55 = icmp eq i32 %54, 65537
  br i1 %55, label %60, label %56

56:                                               ; preds = %52
  %57 = load ptr, ptr %8, align 8, !tbaa !34
  %58 = call i32 @EVP_CIPHER_get_mode(ptr noundef %57)
  %59 = icmp eq i32 %58, 65538
  br i1 %59, label %60, label %61

60:                                               ; preds = %56, %52, %48, %43
  store i32 1, ptr %3, align 4, !tbaa !9
  br label %148

61:                                               ; preds = %56
  %62 = load ptr, ptr %9, align 8, !tbaa !17
  %63 = load ptr, ptr %8, align 8, !tbaa !34
  %64 = call i32 @EVP_EncryptInit_ex(ptr noundef %62, ptr noundef %63, ptr noundef null, ptr noundef @test_cipher_reinit_partialupdate.key, ptr noundef @test_cipher_reinit_partialupdate.iv)
  %65 = icmp ne i32 %64, 0
  %66 = zext i1 %65 to i32
  %67 = call i32 @test_true(ptr noundef @.str.24, i32 noundef 496, ptr noundef @.str.70, i32 noundef %66)
  %68 = icmp ne i32 %67, 0
  br i1 %68, label %69, label %94

69:                                               ; preds = %61
  %70 = load ptr, ptr %9, align 8, !tbaa !17
  %71 = getelementptr inbounds [256 x i8], ptr %10, i64 0, i64 0
  %72 = load i32, ptr %4, align 4, !tbaa !9
  %73 = call i32 @EVP_EncryptUpdate(ptr noundef %70, ptr noundef %71, ptr noundef %5, ptr noundef @test_cipher_reinit_partialupdate.in, i32 noundef %72)
  %74 = icmp ne i32 %73, 0
  %75 = zext i1 %74 to i32
  %76 = call i32 @test_true(ptr noundef @.str.24, i32 noundef 497, ptr noundef @.str.82, i32 noundef %75)
  %77 = icmp ne i32 %76, 0
  br i1 %77, label %78, label %94

78:                                               ; preds = %69
  %79 = load ptr, ptr %9, align 8, !tbaa !17
  %80 = call i32 @EVP_EncryptInit_ex(ptr noundef %79, ptr noundef null, ptr noundef null, ptr noundef @test_cipher_reinit_partialupdate.key, ptr noundef @test_cipher_reinit_partialupdate.iv)
  %81 = icmp ne i32 %80, 0
  %82 = zext i1 %81 to i32
  %83 = call i32 @test_true(ptr noundef @.str.24, i32 noundef 498, ptr noundef @.str.72, i32 noundef %82)
  %84 = icmp ne i32 %83, 0
  br i1 %84, label %85, label %94

85:                                               ; preds = %78
  %86 = load ptr, ptr %9, align 8, !tbaa !17
  %87 = getelementptr inbounds [256 x i8], ptr %11, i64 0, i64 0
  %88 = load i32, ptr %4, align 4, !tbaa !9
  %89 = call i32 @EVP_EncryptUpdate(ptr noundef %86, ptr noundef %87, ptr noundef %6, ptr noundef @test_cipher_reinit_partialupdate.in, i32 noundef %88)
  %90 = icmp ne i32 %89, 0
  %91 = zext i1 %90 to i32
  %92 = call i32 @test_true(ptr noundef @.str.24, i32 noundef 499, ptr noundef @.str.83, i32 noundef %91)
  %93 = icmp ne i32 %92, 0
  br i1 %93, label %95, label %94

94:                                               ; preds = %85, %78, %69, %61
  br label %148

95:                                               ; preds = %85
  %96 = load ptr, ptr %8, align 8, !tbaa !34
  %97 = call i32 @EVP_CIPHER_get_iv_length(ptr noundef %96)
  %98 = icmp ne i32 %97, 0
  br i1 %98, label %99, label %110

99:                                               ; preds = %95
  %100 = getelementptr inbounds [256 x i8], ptr %10, i64 0, i64 0
  %101 = load i32, ptr %5, align 4, !tbaa !9
  %102 = sext i32 %101 to i64
  %103 = getelementptr inbounds [256 x i8], ptr %11, i64 0, i64 0
  %104 = load i32, ptr %6, align 4, !tbaa !9
  %105 = sext i32 %104 to i64
  %106 = call i32 @test_mem_eq(ptr noundef @.str.24, i32 noundef 503, ptr noundef @.str.78, ptr noundef @.str.79, ptr noundef %100, i64 noundef %102, ptr noundef %103, i64 noundef %105)
  %107 = icmp ne i32 %106, 0
  br i1 %107, label %109, label %108

108:                                              ; preds = %99
  br label %148

109:                                              ; preds = %99
  br label %110

110:                                              ; preds = %109, %95
  %111 = load ptr, ptr %8, align 8, !tbaa !34
  %112 = call i32 @EVP_CIPHER_get_mode(ptr noundef %111)
  %113 = icmp ne i32 %112, 65540
  br i1 %113, label %114, label %147

114:                                              ; preds = %110
  %115 = load ptr, ptr %9, align 8, !tbaa !17
  %116 = call i32 @EVP_EncryptInit_ex(ptr noundef %115, ptr noundef null, ptr noundef null, ptr noundef null, ptr noundef @test_cipher_reinit_partialupdate.iv)
  %117 = icmp ne i32 %116, 0
  %118 = zext i1 %117 to i32
  %119 = call i32 @test_true(ptr noundef @.str.24, i32 noundef 507, ptr noundef @.str.75, i32 noundef %118)
  %120 = icmp ne i32 %119, 0
  br i1 %120, label %121, label %130

121:                                              ; preds = %114
  %122 = load ptr, ptr %9, align 8, !tbaa !17
  %123 = getelementptr inbounds [256 x i8], ptr %12, i64 0, i64 0
  %124 = load i32, ptr %4, align 4, !tbaa !9
  %125 = call i32 @EVP_EncryptUpdate(ptr noundef %122, ptr noundef %123, ptr noundef %7, ptr noundef @test_cipher_reinit_partialupdate.in, i32 noundef %124)
  %126 = icmp ne i32 %125, 0
  %127 = zext i1 %126 to i32
  %128 = call i32 @test_true(ptr noundef @.str.24, i32 noundef 508, ptr noundef @.str.84, i32 noundef %127)
  %129 = icmp ne i32 %128, 0
  br i1 %129, label %131, label %130

130:                                              ; preds = %121, %114
  br label %148

131:                                              ; preds = %121
  %132 = load ptr, ptr %8, align 8, !tbaa !34
  %133 = call i32 @EVP_CIPHER_get_iv_length(ptr noundef %132)
  %134 = icmp ne i32 %133, 0
  br i1 %134, label %135, label %146

135:                                              ; preds = %131
  %136 = getelementptr inbounds [256 x i8], ptr %10, i64 0, i64 0
  %137 = load i32, ptr %5, align 4, !tbaa !9
  %138 = sext i32 %137 to i64
  %139 = getelementptr inbounds [256 x i8], ptr %12, i64 0, i64 0
  %140 = load i32, ptr %7, align 4, !tbaa !9
  %141 = sext i32 %140 to i64
  %142 = call i32 @test_mem_eq(ptr noundef @.str.24, i32 noundef 512, ptr noundef @.str.78, ptr noundef @.str.80, ptr noundef %136, i64 noundef %138, ptr noundef %139, i64 noundef %141)
  %143 = icmp ne i32 %142, 0
  br i1 %143, label %145, label %144

144:                                              ; preds = %135
  br label %148

145:                                              ; preds = %135
  br label %146

146:                                              ; preds = %145, %131
  br label %147

147:                                              ; preds = %146, %110
  store i32 1, ptr %3, align 4, !tbaa !9
  br label %148

148:                                              ; preds = %147, %144, %130, %108, %94, %60, %36, %29, %21
  %149 = load ptr, ptr %8, align 8, !tbaa !34
  call void @EVP_CIPHER_free(ptr noundef %149)
  %150 = load ptr, ptr %9, align 8, !tbaa !17
  call void @EVP_CIPHER_CTX_free(ptr noundef %150)
  %151 = load i32, ptr %3, align 4, !tbaa !9
  call void @llvm.lifetime.end.p0(i64 8, ptr %13) #7
  call void @llvm.lifetime.end.p0(i64 256, ptr %12) #7
  call void @llvm.lifetime.end.p0(i64 256, ptr %11) #7
  call void @llvm.lifetime.end.p0(i64 256, ptr %10) #7
  call void @llvm.lifetime.end.p0(i64 8, ptr %9) #7
  call void @llvm.lifetime.end.p0(i64 8, ptr %8) #7
  call void @llvm.lifetime.end.p0(i64 4, ptr %7) #7
  call void @llvm.lifetime.end.p0(i64 4, ptr %6) #7
  call void @llvm.lifetime.end.p0(i64 4, ptr %5) #7
  call void @llvm.lifetime.end.p0(i64 4, ptr %4) #7
  call void @llvm.lifetime.end.p0(i64 4, ptr %3) #7
  ret i32 %151
}