; Function Attrs: nounwind uwtable
define internal range(i32 0, 2) i32 @test_cipher_reinit_partialupdate(i32 noundef %0) #1 {
  %2 = alloca i32, align 4
  %3 = alloca i32, align 4
  %4 = alloca i32, align 4
  %5 = alloca [256 x i8], align 16
  %6 = alloca [256 x i8], align 16
  %7 = alloca [256 x i8], align 16
  call void @llvm.lifetime.start.p0(i64 4, ptr nonnull %2) #7
  store i32 0, ptr %2, align 4, !tbaa !21
  call void @llvm.lifetime.start.p0(i64 4, ptr nonnull %3) #7
  store i32 0, ptr %3, align 4, !tbaa !21
  call void @llvm.lifetime.start.p0(i64 4, ptr nonnull %4) #7
  store i32 0, ptr %4, align 4, !tbaa !21
  call void @llvm.lifetime.start.p0(i64 256, ptr nonnull %5) #7
  call void @llvm.lifetime.start.p0(i64 256, ptr nonnull %6) #7
  call void @llvm.lifetime.start.p0(i64 256, ptr nonnull %7) #7
  %8 = load ptr, ptr @cipher_names, align 8, !tbaa !11
  %9 = tail call ptr @OPENSSL_sk_value(ptr noundef %8, i32 noundef %0) #7
  %10 = tail call ptr @EVP_CIPHER_CTX_new() #7
  %11 = tail call i32 @test_ptr(ptr noundef nonnull @.str.24, i32 noundef 473, ptr noundef nonnull @.str.63, ptr noundef %10) #7
  %.not = icmp eq i32 %11, 0
  br i1 %.not, label %82, label %12

12:                                               ; preds = %1
  tail call void (ptr, ...) @test_note(ptr noundef nonnull @.str.64, ptr noundef %9) #7
  %13 = load ptr, ptr @libctx, align 8, !tbaa !6
  %14 = tail call ptr @EVP_CIPHER_fetch(ptr noundef %13, ptr noundef %9, ptr noundef null) #7
  %15 = tail call i32 @test_ptr(ptr noundef nonnull @.str.24, i32 noundef 477, ptr noundef nonnull @.str.65, ptr noundef %14) #7
  %.not29 = icmp eq i32 %15, 0
  br i1 %.not29, label %82, label %16

16:                                               ; preds = %12
  %17 = tail call i32 @EVP_CIPHER_get_block_size(ptr noundef %14) #7
  %18 = tail call i32 @test_int_gt(ptr noundef nonnull @.str.24, i32 noundef 481, ptr noundef nonnull @.str.81, ptr noundef nonnull @.str.34, i32 noundef %17, i32 noundef 0) #7
  %.not30 = icmp eq i32 %18, 0
  br i1 %.not30, label %82, label %19

19:                                               ; preds = %16
  %20 = icmp sgt i32 %17, 1
  %21 = zext i1 %20 to i32
  %spec.select = lshr i32 %17, %21
  %22 = tail call i64 @EVP_CIPHER_get_flags(ptr noundef %14) #7
  %23 = and i64 %22, 4210688
  %.not31 = icmp eq i64 %23, 0
  br i1 %.not31, label %24, label %82

24:                                               ; preds = %19
  %25 = tail call i32 @EVP_CIPHER_get_mode(ptr noundef %14) #7
  %26 = icmp eq i32 %25, 7
  br i1 %26, label %82, label %27

27:                                               ; preds = %24
  %28 = tail call i32 @EVP_CIPHER_get_mode(ptr noundef %14) #7
  %29 = icmp eq i32 %28, 65537
  br i1 %29, label %82, label %30

30:                                               ; preds = %27
  %31 = tail call i32 @EVP_CIPHER_get_mode(ptr noundef %14) #7
  %32 = icmp eq i32 %31, 65538
  br i1 %32, label %82, label %33

33:                                               ; preds = %30
  %34 = tail call i32 @EVP_EncryptInit_ex(ptr noundef %10, ptr noundef %14, ptr noundef null, ptr noundef nonnull @__const.test_cipher_reinit.key, ptr noundef nonnull @__const.test_cipher_reinit.iv) #7
  %35 = icmp ne i32 %34, 0
  %36 = zext i1 %35 to i32
  %37 = tail call i32 @test_true(ptr noundef nonnull @.str.24, i32 noundef 496, ptr noundef nonnull @.str.70, i32 noundef %36) #7
  %.not32 = icmp eq i32 %37, 0
  br i1 %.not32, label %82, label %38

38:                                               ; preds = %33
  %39 = call i32 @EVP_EncryptUpdate(ptr noundef %10, ptr noundef nonnull %5, ptr noundef nonnull %2, ptr noundef nonnull @test_cipher_reinit_partialupdate.in, i32 noundef %spec.select) #7
  %40 = icmp ne i32 %39, 0
  %41 = zext i1 %40 to i32
  %42 = call i32 @test_true(ptr noundef nonnull @.str.24, i32 noundef 497, ptr noundef nonnull @.str.82, i32 noundef %41) #7
  %.not33 = icmp eq i32 %42, 0
  br i1 %.not33, label %82, label %43

43:                                               ; preds = %38
  %44 = call i32 @EVP_EncryptInit_ex(ptr noundef %10, ptr noundef null, ptr noundef null, ptr noundef nonnull @__const.test_cipher_reinit.key, ptr noundef nonnull @__const.test_cipher_reinit.iv) #7
  %45 = icmp ne i32 %44, 0
  %46 = zext i1 %45 to i32
  %47 = call i32 @test_true(ptr noundef nonnull @.str.24, i32 noundef 498, ptr noundef nonnull @.str.72, i32 noundef %46) #7
  %.not34 = icmp eq i32 %47, 0
  br i1 %.not34, label %82, label %48

48:                                               ; preds = %43
  %49 = call i32 @EVP_EncryptUpdate(ptr noundef %10, ptr noundef nonnull %6, ptr noundef nonnull %3, ptr noundef nonnull @test_cipher_reinit_partialupdate.in, i32 noundef %spec.select) #7
  %50 = icmp ne i32 %49, 0
  %51 = zext i1 %50 to i32
  %52 = call i32 @test_true(ptr noundef nonnull @.str.24, i32 noundef 499, ptr noundef nonnull @.str.83, i32 noundef %51) #7
  %.not35 = icmp eq i32 %52, 0
  br i1 %.not35, label %82, label %53

53:                                               ; preds = %48
  %54 = call i32 @EVP_CIPHER_get_iv_length(ptr noundef %14) #7
  %.not36 = icmp eq i32 %54, 0
  br i1 %.not36, label %61, label %55

55:                                               ; preds = %53
  %56 = load i32, ptr %2, align 4, !tbaa !21
  %57 = sext i32 %56 to i64
  %58 = load i32, ptr %3, align 4, !tbaa !21
  %59 = sext i32 %58 to i64
  %60 = call i32 @test_mem_eq(ptr noundef nonnull @.str.24, i32 noundef 503, ptr noundef nonnull @.str.78, ptr noundef nonnull @.str.79, ptr noundef nonnull %5, i64 noundef %57, ptr noundef nonnull %6, i64 noundef %59) #7
  %.not37 = icmp eq i32 %60, 0
  br i1 %.not37, label %82, label %61

61:                                               ; preds = %55, %53
  %62 = call i32 @EVP_CIPHER_get_mode(ptr noundef %14) #7
  %.not38 = icmp eq i32 %62, 65540
  br i1 %.not38, label %81, label %63

63:                                               ; preds = %61
  %64 = call i32 @EVP_EncryptInit_ex(ptr noundef %10, ptr noundef null, ptr noundef null, ptr noundef null, ptr noundef nonnull @__const.test_cipher_reinit.iv) #7
  %65 = icmp ne i32 %64, 0
  %66 = zext i1 %65 to i32
  %67 = call i32 @test_true(ptr noundef nonnull @.str.24, i32 noundef 507, ptr noundef nonnull @.str.75, i32 noundef %66) #7
  %.not39 = icmp eq i32 %67, 0
  br i1 %.not39, label %82, label %68

68:                                               ; preds = %63
  %69 = call i32 @EVP_EncryptUpdate(ptr noundef %10, ptr noundef nonnull %7, ptr noundef nonnull %4, ptr noundef nonnull @test_cipher_reinit_partialupdate.in, i32 noundef %spec.select) #7
  %70 = icmp ne i32 %69, 0
  %71 = zext i1 %70 to i32
  %72 = call i32 @test_true(ptr noundef nonnull @.str.24, i32 noundef 508, ptr noundef nonnull @.str.84, i32 noundef %71) #7
  %.not40 = icmp eq i32 %72, 0
  br i1 %.not40, label %82, label %73

73:                                               ; preds = %68
  %74 = call i32 @EVP_CIPHER_get_iv_length(ptr noundef %14) #7
  %.not41 = icmp eq i32 %74, 0
  br i1 %.not41, label %81, label %75

75:                                               ; preds = %73
  %76 = load i32, ptr %2, align 4, !tbaa !21
  %77 = sext i32 %76 to i64
  %78 = load i32, ptr %4, align 4, !tbaa !21
  %79 = sext i32 %78 to i64
  %80 = call i32 @test_mem_eq(ptr noundef nonnull @.str.24, i32 noundef 512, ptr noundef nonnull @.str.78, ptr noundef nonnull @.str.80, ptr noundef nonnull %5, i64 noundef %77, ptr noundef nonnull %7, i64 noundef %79) #7
  %.not42 = icmp eq i32 %80, 0
  br i1 %.not42, label %82, label %81

81:                                               ; preds = %73, %75, %61
  br label %82

82:                                               ; preds = %19, %24, %27, %30, %75, %63, %68, %55, %33, %38, %43, %48, %16, %12, %1, %81
  %.026 = phi ptr [ %14, %81 ], [ %14, %75 ], [ %14, %68 ], [ %14, %63 ], [ %14, %55 ], [ %14, %48 ], [ %14, %43 ], [ %14, %38 ], [ %14, %33 ], [ %14, %16 ], [ %14, %12 ], [ null, %1 ], [ %14, %30 ], [ %14, %27 ], [ %14, %24 ], [ %14, %19 ]
  %.0 = phi i32 [ 1, %81 ], [ 0, %75 ], [ 0, %68 ], [ 0, %63 ], [ 0, %55 ], [ 0, %48 ], [ 0, %43 ], [ 0, %38 ], [ 0, %33 ], [ 0, %16 ], [ 0, %12 ], [ 0, %1 ], [ 1, %30 ], [ 1, %27 ], [ 1, %24 ], [ 1, %19 ]
  call void @EVP_CIPHER_free(ptr noundef %.026) #7
  call void @EVP_CIPHER_CTX_free(ptr noundef %10) #7
  call void @llvm.lifetime.end.p0(i64 256, ptr nonnull %7) #7
  call void @llvm.lifetime.end.p0(i64 256, ptr nonnull %6) #7
  call void @llvm.lifetime.end.p0(i64 256, ptr nonnull %5) #7
  call void @llvm.lifetime.end.p0(i64 4, ptr nonnull %4) #7
  call void @llvm.lifetime.end.p0(i64 4, ptr nonnull %3) #7
  call void @llvm.lifetime.end.p0(i64 4, ptr nonnull %2) #7
  ret i32 %.0
}